target datalayout = "e-m:e-p270:32:32-p271:32:32-p272:64:64-i64:64-i128:128-f80:128-n8:16:32:64-S128"
target triple = "x86_64-pc-linux-gnu"

%struct._value_string_ext = type { ptr, i32, i32, ptr, ptr }
%struct.expert_field = type { i32, i32 }

@is_uplink = internal global i32 0, align 4
@hf_gsm_a_spare_bits = external global i32, align 4
@ei_gsm_a_dtap_extraneous_data = internal global %struct.expert_field zeroinitializer, align 4
@hf_gsm_a_dtap_ciphering_key_sequence_number = internal global i32 0, align 4
@ei_gsm_a_dtap_missing_mandatory_element = internal global %struct.expert_field zeroinitializer, align 4
@.str.824 = private unnamed_addr constant [1 x i8] zeroinitializer, align 1
@ett_gsm_common_elem = external global [0 x i32], align 4
@gsm_common_elem_strings_ext = external global %struct._value_string_ext, align 8
@.str.1324 = private unnamed_addr constant [20 x i8] c"No key is available\00", align 1
@.str.1325 = private unnamed_addr constant [62 x i8] c"Missing Mandatory element %s%s, rest of dissection is suspect\00", align 1
@.str.1342 = private unnamed_addr constant [35 x i8] c" - UMTS challenge or GSM challenge\00", align 1

; Function Attrs: null_pointer_is_valid sspstrong uwtable
define internal void @dtap_mm_auth_req(ptr noundef %0, ptr noundef %1, ptr noundef %2, i32 noundef %3, i32 noundef %4) #1 {
  %6 = alloca ptr, align 8
  %7 = alloca ptr, align 8
  %8 = alloca ptr, align 8
  %9 = alloca i32, align 4
  %10 = alloca i32, align 4
  %11 = alloca i32, align 4
  %12 = alloca i32, align 4
  %13 = alloca i32, align 4
  %14 = alloca i8, align 1
  %15 = alloca ptr, align 8
  %16 = alloca i32, align 4
  store ptr %0, ptr %6, align 8
  store ptr %1, ptr %7, align 8
  store ptr %2, ptr %8, align 8
  store i32 %3, ptr %9, align 4
  store i32 %4, ptr %10, align 4
  call void @llvm.lifetime.start.p0(i64 4, ptr %11) #7
  call void @llvm.lifetime.start.p0(i64 4, ptr %12) #7
  call void @llvm.lifetime.start.p0(i64 4, ptr %13) #7
  call void @llvm.lifetime.start.p0(i64 1, ptr %14) #7
  call void @llvm.lifetime.start.p0(i64 8, ptr %15) #7
  %17 = load i32, ptr %9, align 4
  store i32 %17, ptr %11, align 4
  %18 = load i32, ptr %10, align 4
  store i32 %18, ptr %13, align 4
  store i32 0, ptr @is_uplink, align 4
  %19 = load ptr, ptr %6, align 8
  %20 = load i32, ptr %11, align 4
  %21 = call zeroext i8 @tvb_get_uint8(ptr noundef %19, i32 noundef %20)
  store i8 %21, ptr %14, align 1
  %22 = load ptr, ptr %7, align 8
  %23 = load i32, ptr @hf_gsm_a_spare_bits, align 4
  %24 = load ptr, ptr %6, align 8
  %25 = load i32, ptr %11, align 4
  %26 = shl i32 %25, 3
  %27 = call ptr @proto_tree_add_bits_item(ptr noundef %22, i32 noundef %23, ptr noundef %24, i32 noundef %26, i32 noundef 4, i32 noundef 0)
  %28 = load ptr, ptr %7, align 8
  %29 = load ptr, ptr %6, align 8
  %30 = load i32, ptr %11, align 4
  %31 = load i32, ptr getelementptr ([0 x i32], ptr @ett_gsm_common_elem, i64 0, i64 1), align 4
  %32 = call ptr @val_to_str_ext_const(i32 noundef 1, ptr noundef @gsm_common_elem_strings_ext, ptr noundef @.str.824)
  %33 = call ptr @proto_tree_add_subtree(ptr noundef %28, ptr noundef %29, i32 noundef %30, i32 noundef 1, i32 noundef %31, ptr noundef null, ptr noundef %32)
  store ptr %33, ptr %15, align 8
  %34 = load ptr, ptr %15, align 8
  %35 = load i32, ptr @hf_gsm_a_spare_bits, align 4
  %36 = load ptr, ptr %6, align 8
  %37 = load i32, ptr %11, align 4
  %38 = shl i32 %37, 3
  %39 = add i32 %38, 4
  %40 = call ptr @proto_tree_add_bits_item(ptr noundef %34, i32 noundef %35, ptr noundef %36, i32 noundef %39, i32 noundef 1, i32 noundef 0)
  %41 = load i8, ptr %14, align 1
  %42 = zext i8 %41 to i32
  %43 = and i32 %42, 7
  switch i32 %43, label %52 [
    i32 7, label %44
  ]

44:                                               ; preds = %5
  %45 = load ptr, ptr %15, align 8
  %46 = load i32, ptr @hf_gsm_a_dtap_ciphering_key_sequence_number, align 4
  %47 = load ptr, ptr %6, align 8
  %48 = load i32, ptr %11, align 4
  %49 = load i8, ptr %14, align 1
  %50 = zext i8 %49 to i32
  %51 = call ptr (ptr, i32, ptr, i32, i32, i32, ptr, ...) @proto_tree_add_uint_format_value(ptr noundef %45, i32 noundef %46, ptr noundef %47, i32 noundef %48, i32 noundef 1, i32 noundef %50, ptr noundef @.str.1324)
  br label %58

52:                                               ; preds = %5
  %53 = load ptr, ptr %15, align 8
  %54 = load i32, ptr @hf_gsm_a_dtap_ciphering_key_sequence_number, align 4
  %55 = load ptr, ptr %6, align 8
  %56 = load i32, ptr %11, align 4
  %57 = call ptr @proto_tree_add_item(ptr noundef %53, i32 noundef %54, ptr noundef %55, i32 noundef %56, i32 noundef 1, i32 noundef 0)
  br label %58

58:                                               ; preds = %52, %44
  %59 = load i32, ptr %11, align 4
  %60 = add i32 %59, 1
  store i32 %60, ptr %11, align 4
  %61 = load i32, ptr %13, align 4
  %62 = add i32 %61, -1
  store i32 %62, ptr %13, align 4
  %63 = load i32, ptr %13, align 4
  %64 = icmp sgt i32 %63, 0
  br i1 %64, label %65, label %80

65:                                               ; preds = %58
  %66 = load ptr, ptr %6, align 8
  %67 = load ptr, ptr %7, align 8
  %68 = load ptr, ptr %8, align 8
  %69 = load i32, ptr %11, align 4
  %70 = call zeroext i16 @elem_v(ptr noundef %66, ptr noundef %67, ptr noundef %68, i32 noundef 1, i32 noundef 0, i32 noundef %69, ptr noundef @.str.1342)
  %71 = zext i16 %70 to i32
  store i32 %71, ptr %12, align 4
  %72 = icmp ugt i32 %71, 0
  br i1 %72, label %73, label %80

73:                                               ; preds = %65
  %74 = load i32, ptr %12, align 4
  %75 = load i32, ptr %11, align 4
  %76 = add i32 %75, %74
  store i32 %76, ptr %11, align 4
  %77 = load i32, ptr %12, align 4
  %78 = load i32, ptr %13, align 4
  %79 = sub i32 %78, %77
  store i32 %79, ptr %13, align 4
  br label %87

80:                                               ; preds = %65, %58
  %81 = load ptr, ptr %7, align 8
  %82 = load ptr, ptr %8, align 8
  %83 = load ptr, ptr %6, align 8
  %84 = load i32, ptr %11, align 4
  %85 = call ptr @get_gsm_a_msg_string(i32 noundef 1, i32 noundef 0)
  %86 = call ptr (ptr, ptr, ptr, ptr, i32, i32, ptr, ...) @proto_tree_add_expert_format(ptr noundef %81, ptr noundef %82, ptr noundef @ei_gsm_a_dtap_missing_mandatory_element, ptr noundef %83, i32 noundef %84, i32 noundef 0, ptr noundef @.str.1325, ptr noundef %85, ptr noundef @.str.1342)
  br label %87

87:                                               ; preds = %80, %73
  %88 = load i32, ptr %13, align 4
  %89 = icmp sle i32 %88, 0
  br i1 %89, label %90, label %91

90:                                               ; preds = %87
  store i32 1, ptr %16, align 4
  br label %123

91:                                               ; preds = %87
  %92 = load ptr, ptr %6, align 8
  %93 = load ptr, ptr %7, align 8
  %94 = load ptr, ptr %8, align 8
  %95 = load i32, ptr %11, align 4
  %96 = load i32, ptr %13, align 4
  %97 = call zeroext i16 @elem_tlv(ptr noundef %92, ptr noundef %93, ptr noundef %94, i8 noundef zeroext 32, i32 noundef 1, i32 noundef 1, i32 noundef %95, i32 noundef %96, ptr noundef null)
  %98 = zext i16 %97 to i32
  store i32 %98, ptr %12, align 4
  %99 = icmp ugt i32 %98, 0
  br i1 %99, label %100, label %107

100:                                              ; preds = %91
  %101 = load i32, ptr %12, align 4
  %102 = load i32, ptr %11, align 4
  %103 = add i32 %102, %101
  store i32 %103, ptr %11, align 4
  %104 = load i32, ptr %12, align 4
  %105 = load i32, ptr %13, align 4
  %106 = sub i32 %105, %104
  store i32 %106, ptr %13, align 4
  br label %107

107:                                              ; preds = %100, %91
  %108 = load i32, ptr %13, align 4
  %109 = icmp ugt i32 %108, 0
  br i1 %109, label %110, label %122

110:                                              ; preds = %107
  %111 = load ptr, ptr %7, align 8
  %112 = load ptr, ptr %8, align 8
  %113 = load ptr, ptr %6, align 8
  %114 = load i32, ptr %11, align 4
  %115 = load i32, ptr %13, align 4
  %116 = sub i32 %115, 0
  %117 = call ptr @proto_tree_add_expert(ptr noundef %111, ptr noundef %112, ptr noundef @ei_gsm_a_dtap_extraneous_data, ptr noundef %113, i32 noundef %114, i32 noundef %116)
  %118 = load i32, ptr %13, align 4
  %119 = sub i32 %118, 0
  %120 = load i32, ptr %11, align 4
  %121 = add i32 %120, %119
  store i32 %121, ptr %11, align 4
  br label %122

122:                                              ; preds = %110, %107
  store i32 0, ptr %16, align 4
  br label %123

123:                                              ; preds = %122, %90
  call void @llvm.lifetime.end.p0(i64 8, ptr %15) #7
  call void @llvm.lifetime.end.p0(i64 1, ptr %14) #7
  call void @llvm.lifetime.end.p0(i64 4, ptr %13) #7
  call void @llvm.lifetime.end.p0(i64 4, ptr %12) #7
  call void @llvm.lifetime.end.p0(i64 4, ptr %11) #7
  %124 = load i32, ptr %16, align 4
  switch i32 %124, label %126 [
    i32 0, label %125
    i32 1, label %125
  ]

125:                                              ; preds = %123, %123
  ret void

126:                                              ; preds = %123
  unreachable
}