; Function Attrs: null_pointer_is_valid sspstrong uwtable
define internal void @dtap_mm_auth_req(ptr noundef %0, ptr noundef %1, ptr noundef %2, i32 noundef %3, i32 noundef %4) #1 {
  store i1 false, ptr @is_uplink, align 4
  %6 = tail call zeroext i8 @tvb_get_uint8(ptr noundef %0, i32 noundef %3)
  %7 = load i32, ptr @hf_gsm_a_spare_bits, align 4
  %8 = shl i32 %3, 3
  %9 = tail call ptr @proto_tree_add_bits_item(ptr noundef %1, i32 noundef %7, ptr noundef %0, i32 noundef %8, i32 noundef 4, i32 noundef 0)
  %10 = load i32, ptr getelementptr (i8, ptr @ett_gsm_common_elem, i64 4), align 4
  %11 = tail call ptr @val_to_str_ext_const(i32 noundef 1, ptr noundef nonnull @gsm_common_elem_strings_ext, ptr noundef nonnull @.str.824)
  %12 = tail call ptr @proto_tree_add_subtree(ptr noundef %1, ptr noundef %0, i32 noundef %3, i32 noundef 1, i32 noundef %10, ptr noundef null, ptr noundef %11)
  %13 = load i32, ptr @hf_gsm_a_spare_bits, align 4
  %14 = or disjoint i32 %8, 4
  %15 = tail call ptr @proto_tree_add_bits_item(ptr noundef %12, i32 noundef %13, ptr noundef %0, i32 noundef %14, i32 noundef 1, i32 noundef 0)
  %16 = zext i8 %6 to i32
  %17 = and i32 %16, 7
  %cond = icmp eq i32 %17, 7
  %18 = load i32, ptr @hf_gsm_a_dtap_ciphering_key_sequence_number, align 4
  br i1 %cond, label %19, label %21

19:                                               ; preds = %5
  %20 = tail call ptr (ptr, i32, ptr, i32, i32, i32, ptr, ...) @proto_tree_add_uint_format_value(ptr noundef %12, i32 noundef %18, ptr noundef %0, i32 noundef %3, i32 noundef 1, i32 noundef %16, ptr noundef nonnull @.str.1324)
  br label %23

21:                                               ; preds = %5
  %22 = tail call ptr @proto_tree_add_item(ptr noundef %12, i32 noundef %18, ptr noundef %0, i32 noundef %3, i32 noundef 1, i32 noundef 0)
  br label %23

23:                                               ; preds = %21, %19
  %24 = add i32 %3, 1
  %25 = add i32 %4, -1
  %26 = icmp sgt i32 %25, 0
  br i1 %26, label %27, label %33

27:                                               ; preds = %23
  %28 = tail call zeroext i16 @elem_v(ptr noundef %0, ptr noundef %1, ptr noundef %2, i32 noundef 1, i32 noundef 0, i32 noundef %24, ptr noundef nonnull @.str.1342)
  %.not = icmp eq i16 %28, 0
  br i1 %.not, label %33, label %29

29:                                               ; preds = %27
  %30 = zext i16 %28 to i32
  %31 = add i32 %24, %30
  %32 = sub nsw i32 %25, %30
  br label %36

33:                                               ; preds = %27, %23
  %34 = tail call ptr @get_gsm_a_msg_string(i32 noundef 1, i32 noundef 0)
  %35 = tail call ptr (ptr, ptr, ptr, ptr, i32, i32, ptr, ...) @proto_tree_add_expert_format(ptr noundef %1, ptr noundef %2, ptr noundef nonnull @ei_gsm_a_dtap_missing_mandatory_element, ptr noundef %0, i32 noundef %24, i32 noundef 0, ptr noundef nonnull @.str.1325, ptr noundef %34, ptr noundef nonnull @.str.1342)
  br label %36

36:                                               ; preds = %33, %29
  %.053 = phi i32 [ %32, %29 ], [ %25, %33 ]
  %.0 = phi i32 [ %31, %29 ], [ %24, %33 ]
  %37 = icmp slt i32 %.053, 1
  br i1 %37, label %45, label %38

38:                                               ; preds = %36
  %39 = tail call zeroext i16 @elem_tlv(ptr noundef %0, ptr noundef %1, ptr noundef %2, i8 noundef zeroext 32, i32 noundef 1, i32 noundef 1, i32 noundef %.0, i32 noundef %.053, ptr noundef null)
  %40 = zext i16 %39 to i32
  %.not59 = icmp eq i32 %.053, %40
  br i1 %.not59, label %45, label %41

41:                                               ; preds = %38
  %42 = sub nsw i32 %.053, %40
  %43 = add i32 %.0, %40
  %44 = tail call ptr @proto_tree_add_expert(ptr noundef %1, ptr noundef %2, ptr noundef nonnull @ei_gsm_a_dtap_extraneous_data, ptr noundef %0, i32 noundef %43, i32 noundef %42)
  br label %45

45:                                               ; preds = %38, %41, %36
  ret void
}